target datalayout = "e-m:e-p270:32:32-p271:32:32-p272:64:64-i64:64-i128:128-f80:128-n8:16:32:64-S128"
target triple = "x86_64-pc-linux-gnu"

%struct.strvec = type { ptr, i64, i64 }
%struct.credential_capability = type { i8, [3 x i8] }
%struct.credential = type { %struct.string_list, %struct.strvec, %struct.strvec, %struct.strvec, i16, [2 x i8], %struct.credential_capability, %struct.credential_capability, ptr, ptr, ptr, ptr, ptr, ptr, ptr, i64, ptr }
%struct.string_list = type { ptr, i64, i64, i8, ptr }
%struct.active_request_slot = type { ptr, i32, i32, i64, ptr, ptr, ptr, ptr, ptr }

@curl_http_proxy = internal global ptr null, align 8
@http_proxy_authmethod = internal global ptr null, align 8
@pragma_header = internal global ptr null, align 8
@curlm = internal global ptr null, align 8
@proxy_ssl_cert_password_required = internal global i32 0, align 4
@ssl_cert_password_required = internal global i32 0, align 4
@curl_default = internal global ptr null, align 8
@active_queue_head = internal global ptr null, align 8
@host_resolutions = internal global ptr null, align 8
@curl_proxyuserpwd = internal global ptr null, align 8
@cached_accept_language = internal global ptr null, align 8
@extra_http_headers = internal global { ptr, i64, i64, i8, [7 x i8], ptr } { ptr null, i64 0, i64 0, i8 1, [7 x i8] zeroinitializer, ptr null }, align 8

; Function Attrs: nounwind uwtable
define internal void @xmulti_remove_handle(ptr noundef %0) #0 {
  %2 = alloca ptr, align 8
  store ptr %0, ptr %2, align 8, !tbaa !88
  %3 = load ptr, ptr @curlm, align 8, !tbaa !11
  %4 = load ptr, ptr %2, align 8, !tbaa !88
  %5 = getelementptr inbounds nuw %struct.active_request_slot, ptr %4, i32 0, i32 0
  %6 = load ptr, ptr %5, align 8, !tbaa !94
  %7 = call i32 @curl_multi_remove_handle(ptr noundef %3, ptr noundef %6)
  ret void
}

; Function Attrs: nounwind uwtable
define dso_local void @http_cleanup() #0 {
  %1 = alloca ptr, align 8
  %2 = alloca ptr, align 8
  call void @llvm.lifetime.start.p0(i64 8, ptr %1) #11
  %3 = load ptr, ptr @active_queue_head, align 8, !tbaa !88
  store ptr %3, ptr %1, align 8, !tbaa !88
  br label %4

4:                                                ; preds = %20, %0
  %5 = load ptr, ptr %1, align 8, !tbaa !88
  %6 = icmp ne ptr %5, null
  br i1 %6, label %7, label %23

7:                                                ; preds = %4
  call void @llvm.lifetime.start.p0(i64 8, ptr %2) #11
  %8 = load ptr, ptr %1, align 8, !tbaa !88
  %9 = getelementptr inbounds nuw %struct.active_request_slot, ptr %8, i32 0, i32 8
  %10 = load ptr, ptr %9, align 8, !tbaa !90
  store ptr %10, ptr %2, align 8, !tbaa !88
  %11 = load ptr, ptr %1, align 8, !tbaa !88
  %12 = getelementptr inbounds nuw %struct.active_request_slot, ptr %11, i32 0, i32 0
  %13 = load ptr, ptr %12, align 8, !tbaa !94
  %14 = icmp ne ptr %13, null
  br i1 %14, label %15, label %20

15:                                               ; preds = %7
  %16 = load ptr, ptr %1, align 8, !tbaa !88
  call void @xmulti_remove_handle(ptr noundef %16)
  %17 = load ptr, ptr %1, align 8, !tbaa !88
  %18 = getelementptr inbounds nuw %struct.active_request_slot, ptr %17, i32 0, i32 0
  %19 = load ptr, ptr %18, align 8, !tbaa !94
  call void @curl_easy_cleanup(ptr noundef %19)
  br label %20

20:                                               ; preds = %15, %7
  %21 = load ptr, ptr %1, align 8, !tbaa !88
  call void @free(ptr noundef %21) #11
  %22 = load ptr, ptr %2, align 8, !tbaa !88
  store ptr %22, ptr %1, align 8, !tbaa !88
  call void @llvm.lifetime.end.p0(i64 8, ptr %2) #11
  br label %4, !llvm.loop !95

23:                                               ; preds = %4
  store ptr null, ptr @active_queue_head, align 8, !tbaa !88
  %24 = load ptr, ptr @curl_default, align 8, !tbaa !11
  call void @curl_easy_cleanup(ptr noundef %24)
  %25 = load ptr, ptr @curlm, align 8, !tbaa !11
  %26 = call i32 @curl_multi_cleanup(ptr noundef %25)
  call void @curl_global_cleanup()
  call void @string_list_clear(ptr noundef @extra_http_headers, i32 noundef 0)
  %27 = load ptr, ptr @pragma_header, align 8, !tbaa !25
  call void @curl_slist_free_all(ptr noundef %27)
  store ptr null, ptr @pragma_header, align 8, !tbaa !25
  %28 = load ptr, ptr @host_resolutions, align 8, !tbaa !25
  call void @curl_slist_free_all(ptr noundef %28)
  store ptr null, ptr @host_resolutions, align 8, !tbaa !25
  %29 = load ptr, ptr @curl_http_proxy, align 8, !tbaa !4
  %30 = icmp ne ptr %29, null
  br i1 %30, label %31, label %33

31:                                               ; preds = %23
  %32 = load ptr, ptr @curl_http_proxy, align 8, !tbaa !4
  call void @free(ptr noundef %32) #11
  store ptr null, ptr @curl_http_proxy, align 8, !tbaa !4
  br label %33

33:                                               ; preds = %31, %23
  %34 = load ptr, ptr getelementptr inbounds nuw (%struct.credential, ptr @proxy_auth, i32 0, i32 9), align 8, !tbaa !80
  %35 = icmp ne ptr %34, null
  br i1 %35, label %36, label %44

36:                                               ; preds = %33
  %37 = load ptr, ptr getelementptr inbounds nuw (%struct.credential, ptr @proxy_auth, i32 0, i32 9), align 8, !tbaa !80
  %38 = load ptr, ptr getelementptr inbounds nuw (%struct.credential, ptr @proxy_auth, i32 0, i32 9), align 8, !tbaa !80
  %39 = call i64 @strlen(ptr noundef %38) #13
  call void @llvm.memset.p0.i64(ptr align 1 %37, i8 0, i64 %39, i1 false)
  br label %40

40:                                               ; preds = %36
  %41 = load ptr, ptr getelementptr inbounds nuw (%struct.credential, ptr @proxy_auth, i32 0, i32 9), align 8, !tbaa !80
  call void @free(ptr noundef %41) #11
  store ptr null, ptr getelementptr inbounds nuw (%struct.credential, ptr @proxy_auth, i32 0, i32 9), align 8, !tbaa !80
  br label %42

42:                                               ; preds = %40
  br label %43

43:                                               ; preds = %42
  br label %44

44:                                               ; preds = %43, %33
  %45 = load ptr, ptr @curl_proxyuserpwd, align 8, !tbaa !4
  call void @free(ptr noundef %45) #11
  store ptr null, ptr @curl_proxyuserpwd, align 8, !tbaa !4
  %46 = load ptr, ptr @http_proxy_authmethod, align 8, !tbaa !4
  call void @free(ptr noundef %46) #11
  store ptr null, ptr @http_proxy_authmethod, align 8, !tbaa !4
  %47 = load ptr, ptr getelementptr inbounds nuw (%struct.credential, ptr @cert_auth, i32 0, i32 9), align 8, !tbaa !80
  %48 = icmp ne ptr %47, null
  br i1 %48, label %49, label %57

49:                                               ; preds = %44
  %50 = load ptr, ptr getelementptr inbounds nuw (%struct.credential, ptr @cert_auth, i32 0, i32 9), align 8, !tbaa !80
  %51 = load ptr, ptr getelementptr inbounds nuw (%struct.credential, ptr @cert_auth, i32 0, i32 9), align 8, !tbaa !80
  %52 = call i64 @strlen(ptr noundef %51) #13
  call void @llvm.memset.p0.i64(ptr align 1 %50, i8 0, i64 %52, i1 false)
  br label %53

53:                                               ; preds = %49
  %54 = load ptr, ptr getelementptr inbounds nuw (%struct.credential, ptr @cert_auth, i32 0, i32 9), align 8, !tbaa !80
  call void @free(ptr noundef %54) #11
  store ptr null, ptr getelementptr inbounds nuw (%struct.credential, ptr @cert_auth, i32 0, i32 9), align 8, !tbaa !80
  br label %55

55:                                               ; preds = %53
  br label %56

56:                                               ; preds = %55
  br label %57

57:                                               ; preds = %56, %44
  store i32 0, ptr @ssl_cert_password_required, align 4, !tbaa !19
  %58 = load ptr, ptr getelementptr inbounds nuw (%struct.credential, ptr @proxy_cert_auth, i32 0, i32 9), align 8, !tbaa !80
  %59 = icmp ne ptr %58, null
  br i1 %59, label %60, label %68

60:                                               ; preds = %57
  %61 = load ptr, ptr getelementptr inbounds nuw (%struct.credential, ptr @proxy_cert_auth, i32 0, i32 9), align 8, !tbaa !80
  %62 = load ptr, ptr getelementptr inbounds nuw (%struct.credential, ptr @proxy_cert_auth, i32 0, i32 9), align 8, !tbaa !80
  %63 = call i64 @strlen(ptr noundef %62) #13
  call void @llvm.memset.p0.i64(ptr align 1 %61, i8 0, i64 %63, i1 false)
  br label %64

64:                                               ; preds = %60
  %65 = load ptr, ptr getelementptr inbounds nuw (%struct.credential, ptr @proxy_cert_auth, i32 0, i32 9), align 8, !tbaa !80
  call void @free(ptr noundef %65) #11
  store ptr null, ptr getelementptr inbounds nuw (%struct.credential, ptr @proxy_cert_auth, i32 0, i32 9), align 8, !tbaa !80
  br label %66

66:                                               ; preds = %64
  br label %67

67:                                               ; preds = %66
  br label %68

68:                                               ; preds = %67, %57
  store i32 0, ptr @proxy_ssl_cert_password_required, align 4, !tbaa !19
  br label %69

69:                                               ; preds = %68
  %70 = load ptr, ptr @cached_accept_language, align 8, !tbaa !4
  call void @free(ptr noundef %70) #11
  store ptr null, ptr @cached_accept_language, align 8, !tbaa !4
  br label %71

71:                                               ; preds = %69
  br label %72

72:                                               ; preds = %71
  call void @llvm.lifetime.end.p0(i64 8, ptr %1) #11
  ret void
}