; Function Attrs: nounwind uwtable
define dso_local void @http_cleanup() local_unnamed_addr #3 {
  %1 = load ptr, ptr @active_queue_head, align 8, !tbaa !81
  %.not16 = icmp eq ptr %1, null
  br i1 %.not16, label %._crit_edge, label %.lr.ph

.lr.ph:                                           ; preds = %0, %9
  %.017 = phi ptr [ %3, %9 ], [ %1, %0 ]
  %2 = getelementptr inbounds nuw i8, ptr %.017, i64 56
  %3 = load ptr, ptr %2, align 8, !tbaa !83
  %4 = load ptr, ptr %.017, align 8, !tbaa !87
  %.not15 = icmp eq ptr %4, null
  br i1 %.not15, label %9, label %5

5:                                                ; preds = %.lr.ph
  %6 = load ptr, ptr @curlm, align 8, !tbaa !62
  %7 = tail call i32 @curl_multi_remove_handle(ptr noundef %6, ptr noundef nonnull %4) #22
  %8 = load ptr, ptr %.017, align 8, !tbaa !87
  tail call void @curl_easy_cleanup(ptr noundef %8) #22
  br label %9

9:                                                ; preds = %5, %.lr.ph
  tail call void @free(ptr noundef nonnull %.017) #22
  %.not = icmp eq ptr %3, null
  br i1 %.not, label %._crit_edge, label %.lr.ph, !llvm.loop !88

._crit_edge:                                      ; preds = %9, %0
  store ptr null, ptr @active_queue_head, align 8, !tbaa !81
  %10 = load ptr, ptr @curl_default, align 8, !tbaa !62
  tail call void @curl_easy_cleanup(ptr noundef %10) #22
  %11 = load ptr, ptr @curlm, align 8, !tbaa !62
  %12 = tail call i32 @curl_multi_cleanup(ptr noundef %11) #22
  tail call void @curl_global_cleanup() #22
  tail call void @string_list_clear(ptr noundef nonnull @extra_http_headers, i32 noundef 0) #22
  %13 = load ptr, ptr @pragma_header, align 8, !tbaa !60
  tail call void @curl_slist_free_all(ptr noundef %13) #22
  store ptr null, ptr @pragma_header, align 8, !tbaa !60
  %14 = load ptr, ptr @host_resolutions, align 8, !tbaa !60
  tail call void @curl_slist_free_all(ptr noundef %14) #22
  store ptr null, ptr @host_resolutions, align 8, !tbaa !60
  %15 = load ptr, ptr @curl_http_proxy, align 8, !tbaa !41
  %.not11 = icmp eq ptr %15, null
  br i1 %.not11, label %17, label %16

16:                                               ; preds = %._crit_edge
  tail call void @free(ptr noundef nonnull %15) #22
  store ptr null, ptr @curl_http_proxy, align 8, !tbaa !41
  br label %17

17:                                               ; preds = %16, %._crit_edge
  %18 = load ptr, ptr getelementptr inbounds nuw (i8, ptr @proxy_auth, i64 136), align 8, !tbaa !70
  %.not12 = icmp eq ptr %18, null
  br i1 %.not12, label %22, label %19

19:                                               ; preds = %17
  %20 = tail call i64 @strlen(ptr noundef nonnull dereferenceable(1) %18) #23
  tail call void @llvm.memset.p0.i64(ptr nonnull align 1 %18, i8 0, i64 %20, i1 false)
  %21 = load ptr, ptr getelementptr inbounds nuw (i8, ptr @proxy_auth, i64 136), align 8, !tbaa !70
  tail call void @free(ptr noundef %21) #22
  store ptr null, ptr getelementptr inbounds nuw (i8, ptr @proxy_auth, i64 136), align 8, !tbaa !70
  br label %22

22:                                               ; preds = %19, %17
  %23 = load ptr, ptr @http_proxy_authmethod, align 8, !tbaa !41
  tail call void @free(ptr noundef %23) #22
  store ptr null, ptr @http_proxy_authmethod, align 8, !tbaa !41
  %24 = load ptr, ptr getelementptr inbounds nuw (i8, ptr @cert_auth, i64 136), align 8, !tbaa !70
  %.not13 = icmp eq ptr %24, null
  br i1 %.not13, label %28, label %25

25:                                               ; preds = %22
  %26 = tail call i64 @strlen(ptr noundef nonnull dereferenceable(1) %24) #23
  tail call void @llvm.memset.p0.i64(ptr nonnull align 1 %24, i8 0, i64 %26, i1 false)
  %27 = load ptr, ptr getelementptr inbounds nuw (i8, ptr @cert_auth, i64 136), align 8, !tbaa !70
  tail call void @free(ptr noundef %27) #22
  store ptr null, ptr getelementptr inbounds nuw (i8, ptr @cert_auth, i64 136), align 8, !tbaa !70
  br label %28

28:                                               ; preds = %25, %22
  store i32 0, ptr @ssl_cert_password_required, align 4, !tbaa !38
  %29 = load ptr, ptr getelementptr inbounds nuw (i8, ptr @proxy_cert_auth, i64 136), align 8, !tbaa !70
  %.not14 = icmp eq ptr %29, null
  br i1 %.not14, label %33, label %30

30:                                               ; preds = %28
  %31 = tail call i64 @strlen(ptr noundef nonnull dereferenceable(1) %29) #23
  tail call void @llvm.memset.p0.i64(ptr nonnull align 1 %29, i8 0, i64 %31, i1 false)
  %32 = load ptr, ptr getelementptr inbounds nuw (i8, ptr @proxy_cert_auth, i64 136), align 8, !tbaa !70
  tail call void @free(ptr noundef %32) #22
  store ptr null, ptr getelementptr inbounds nuw (i8, ptr @proxy_cert_auth, i64 136), align 8, !tbaa !70
  br label %33

33:                                               ; preds = %30, %28
  store i32 0, ptr @proxy_ssl_cert_password_required, align 4, !tbaa !38
  %34 = load ptr, ptr @cached_accept_language, align 8, !tbaa !41
  tail call void @free(ptr noundef %34) #22
  store ptr null, ptr @cached_accept_language, align 8, !tbaa !41
  ret void
}